target datalayout = "e-m:e-p270:32:32-p271:32:32-p272:64:64-i64:64-i128:128-f80:128-n8:16:32:64-S128"
target triple = "x86_64-pc-linux-gnu"

%"class.__gnu_cxx::__normal_iterator" = type { ptr }
%"class.toml::v3::path_component" = type { %"struct.toml::v3::path_component::storage_t", i8, [7 x i8] }
%"struct.toml::v3::path_component::storage_t" = type { [32 x i8] }
%"class.toml::v3::path" = type { %"class.std::vector.24" }
%"class.std::vector.24" = type { %"struct.std::_Vector_base.25" }
%"struct.std::_Vector_base.25" = type { %"struct.std::_Vector_base<toml::v3::path_component, std::allocator<toml::v3::path_component>>::_Vector_impl" }
%"struct.std::_Vector_base<toml::v3::path_component, std::allocator<toml::v3::path_component>>::_Vector_impl" = type { %"struct.std::_Vector_base<toml::v3::path_component, std::allocator<toml::v3::path_component>>::_Vector_impl_data" }
%"struct.std::_Vector_base<toml::v3::path_component, std::allocator<toml::v3::path_component>>::_Vector_impl_data" = type { ptr, ptr, ptr }
%"class.__gnu_cxx::__normal_iterator.32" = type { ptr }
%"class.std::move_iterator" = type { %"class.__gnu_cxx::__normal_iterator.32" }

; Function Attrs: inlinehint mustprogress nounwind uwtable
define linkonce_odr void @_ZSt19__iterator_categoryISt13move_iteratorIN9__gnu_cxx17__normal_iteratorIPN4toml2v314path_componentESt6vectorIS5_SaIS5_EEEEEENSt15iterator_traitsIT_E17iterator_categoryERKSD_(ptr noundef nonnull align 8 dereferenceable(8) %0) #3 comdat {
  %2 = alloca ptr, align 8
  store ptr %0, ptr %2, align 8, !tbaa !492
  ret void
}

; Function Attrs: mustprogress nounwind uwtable
define linkonce_odr noundef nonnull align 8 dereferenceable(8) ptr @_ZNK9__gnu_cxx17__normal_iteratorIPKN4toml2v314path_componentESt6vectorIS3_SaIS3_EEE4baseEv(ptr noundef nonnull align 8 dereferenceable(8) %0) #2 comdat align 2 {
  %2 = alloca ptr, align 8
  store ptr %0, ptr %2, align 8, !tbaa !184
  %3 = load ptr, ptr %2, align 8
  %4 = getelementptr inbounds nuw %"class.__gnu_cxx::__normal_iterator", ptr %3, i32 0, i32 0
  ret ptr %4
}

; Function Attrs: mustprogress nounwind uwtable
define linkonce_odr void @_ZN9__gnu_cxx17__normal_iteratorIPKN4toml2v314path_componentESt6vectorIS3_SaIS3_EEEC2ERKS5_(ptr noundef nonnull align 8 dereferenceable(8) %0, ptr noundef nonnull align 8 dereferenceable(8) %1) unnamed_addr #2 comdat align 2 {
  %3 = alloca ptr, align 8
  %4 = alloca ptr, align 8
  store ptr %0, ptr %3, align 8, !tbaa !184
  store ptr %1, ptr %4, align 8, !tbaa !876
  %5 = load ptr, ptr %3, align 8
  %6 = getelementptr inbounds nuw %"class.__gnu_cxx::__normal_iterator", ptr %5, i32 0, i32 0
  %7 = load ptr, ptr %4, align 8, !tbaa !876
  %8 = load ptr, ptr %7, align 8, !tbaa !153
  store ptr %8, ptr %6, align 8, !tbaa !186
  ret void
}

; Function Attrs: mustprogress uwtable
define linkonce_odr void @_ZNSt6vectorIN4toml2v314path_componentESaIS2_EE18_M_insert_dispatchISt13move_iteratorIN9__gnu_cxx17__normal_iteratorIPS2_S4_EEEEEvSA_T_SC_St12__false_type(ptr noundef nonnull align 8 dereferenceable(24) %0, ptr %1, ptr %2, ptr %3) #0 comdat align 2 {
  %5 = alloca %"class.__gnu_cxx::__normal_iterator.32", align 8
  %6 = alloca %"class.std::move_iterator", align 8
  %7 = alloca %"class.std::move_iterator", align 8
  %8 = alloca ptr, align 8
  %9 = alloca %"class.__gnu_cxx::__normal_iterator.32", align 8
  %10 = alloca %"class.std::move_iterator", align 8
  %11 = alloca %"class.std::move_iterator", align 8
  %12 = getelementptr inbounds nuw %"class.__gnu_cxx::__normal_iterator.32", ptr %5, i32 0, i32 0
  store ptr %1, ptr %12, align 8
  %13 = getelementptr inbounds nuw %"class.std::move_iterator", ptr %6, i32 0, i32 0
  %14 = getelementptr inbounds nuw %"class.__gnu_cxx::__normal_iterator.32", ptr %13, i32 0, i32 0
  store ptr %2, ptr %14, align 8
  %15 = getelementptr inbounds nuw %"class.std::move_iterator", ptr %7, i32 0, i32 0
  %16 = getelementptr inbounds nuw %"class.__gnu_cxx::__normal_iterator.32", ptr %15, i32 0, i32 0
  store ptr %3, ptr %16, align 8
  store ptr %0, ptr %8, align 8, !tbaa !182
  %17 = load ptr, ptr %8, align 8
  call void @llvm.memcpy.p0.p0.i64(ptr align 8 %9, ptr align 8 %5, i64 8, i1 false), !tbaa.struct !191
  call void @llvm.memcpy.p0.p0.i64(ptr align 8 %10, ptr align 8 %6, i64 8, i1 false), !tbaa.struct !191
  call void @llvm.memcpy.p0.p0.i64(ptr align 8 %11, ptr align 8 %7, i64 8, i1 false), !tbaa.struct !191
  call void @_ZSt19__iterator_categoryISt13move_iteratorIN9__gnu_cxx17__normal_iteratorIPN4toml2v314path_componentESt6vectorIS5_SaIS5_EEEEEENSt15iterator_traitsIT_E17iterator_categoryERKSD_(ptr noundef nonnull align 8 dereferenceable(8) %6)
  %18 = getelementptr inbounds nuw %"class.__gnu_cxx::__normal_iterator.32", ptr %9, i32 0, i32 0
  %19 = load ptr, ptr %18, align 8
  %20 = getelementptr inbounds nuw %"class.std::move_iterator", ptr %10, i32 0, i32 0
  %21 = getelementptr inbounds nuw %"class.__gnu_cxx::__normal_iterator.32", ptr %20, i32 0, i32 0
  %22 = load ptr, ptr %21, align 8
  %23 = getelementptr inbounds nuw %"class.std::move_iterator", ptr %11, i32 0, i32 0
  %24 = getelementptr inbounds nuw %"class.__gnu_cxx::__normal_iterator.32", ptr %23, i32 0, i32 0
  %25 = load ptr, ptr %24, align 8
  call void @_ZNSt6vectorIN4toml2v314path_componentESaIS2_EE15_M_range_insertISt13move_iteratorIN9__gnu_cxx17__normal_iteratorIPS2_S4_EEEEEvSA_T_SC_St20forward_iterator_tag(ptr noundef nonnull align 8 dereferenceable(24) %17, ptr %19, ptr %22, ptr %25)
  ret void
}

; Function Attrs: mustprogress nounwind uwtable
define linkonce_odr ptr @_ZNK9__gnu_cxx17__normal_iteratorIPN4toml2v314path_componentESt6vectorIS3_SaIS3_EEEplEl(ptr noundef nonnull align 8 dereferenceable(8) %0, i64 noundef %1) #2 comdat align 2 {
  %3 = alloca %"class.__gnu_cxx::__normal_iterator.32", align 8
  %4 = alloca ptr, align 8
  %5 = alloca i64, align 8
  %6 = alloca ptr, align 8
  store ptr %0, ptr %4, align 8, !tbaa !192
  store i64 %1, ptr %5, align 8, !tbaa !10
  %7 = load ptr, ptr %4, align 8
  call void @llvm.lifetime.start.p0(i64 8, ptr %6) #36
  %8 = getelementptr inbounds nuw %"class.__gnu_cxx::__normal_iterator.32", ptr %7, i32 0, i32 0
  %9 = load ptr, ptr %8, align 8, !tbaa !200
  %10 = load i64, ptr %5, align 8, !tbaa !10
  %11 = getelementptr inbounds %"class.toml::v3::path_component", ptr %9, i64 %10
  store ptr %11, ptr %6, align 8, !tbaa !153
  call void @_ZN9__gnu_cxx17__normal_iteratorIPN4toml2v314path_componentESt6vectorIS3_SaIS3_EEEC2ERKS4_(ptr noundef nonnull align 8 dereferenceable(8) %3, ptr noundef nonnull align 8 dereferenceable(8) %6) #36
  call void @llvm.lifetime.end.p0(i64 8, ptr %6) #36
  %12 = getelementptr inbounds nuw %"class.__gnu_cxx::__normal_iterator.32", ptr %3, i32 0, i32 0
  %13 = load ptr, ptr %12, align 8
  ret ptr %13
}

; Function Attrs: inlinehint mustprogress nounwind uwtable
define linkonce_odr noundef i64 @_ZN9__gnu_cxxmiIPKN4toml2v314path_componentESt6vectorIS3_SaIS3_EEEENS_17__normal_iteratorIT_T0_E15difference_typeERKSC_SF_(ptr noundef nonnull align 8 dereferenceable(8) %0, ptr noundef nonnull align 8 dereferenceable(8) %1) #3 comdat {
  %3 = alloca ptr, align 8
  %4 = alloca ptr, align 8
  store ptr %0, ptr %3, align 8, !tbaa !184
  store ptr %1, ptr %4, align 8, !tbaa !184
  %5 = load ptr, ptr %3, align 8, !tbaa !184
  %6 = call noundef nonnull align 8 dereferenceable(8) ptr @_ZNK9__gnu_cxx17__normal_iteratorIPKN4toml2v314path_componentESt6vectorIS3_SaIS3_EEE4baseEv(ptr noundef nonnull align 8 dereferenceable(8) %5) #36
  %7 = load ptr, ptr %6, align 8, !tbaa !153
  %8 = load ptr, ptr %4, align 8, !tbaa !184
  %9 = call noundef nonnull align 8 dereferenceable(8) ptr @_ZNK9__gnu_cxx17__normal_iteratorIPKN4toml2v314path_componentESt6vectorIS3_SaIS3_EEE4baseEv(ptr noundef nonnull align 8 dereferenceable(8) %8) #36
  %10 = load ptr, ptr %9, align 8, !tbaa !153
  %11 = ptrtoint ptr %7 to i64
  %12 = ptrtoint ptr %10 to i64
  %13 = sub i64 %11, %12
  %14 = sdiv exact i64 %13, 40
  ret i64 %14
}

; Function Attrs: mustprogress nounwind uwtable
define linkonce_odr ptr @_ZNKSt6vectorIN4toml2v314path_componentESaIS2_EE6cbeginEv(ptr noundef nonnull align 8 dereferenceable(24) %0) #2 comdat align 2 {
  %2 = alloca %"class.__gnu_cxx::__normal_iterator", align 8
  %3 = alloca ptr, align 8
  store ptr %0, ptr %3, align 8, !tbaa !182
  %4 = load ptr, ptr %3, align 8
  %5 = getelementptr inbounds nuw %"struct.std::_Vector_base.25", ptr %4, i32 0, i32 0
  %6 = getelementptr inbounds nuw %"struct.std::_Vector_base<toml::v3::path_component, std::allocator<toml::v3::path_component>>::_Vector_impl_data", ptr %5, i32 0, i32 0
  call void @_ZN9__gnu_cxx17__normal_iteratorIPKN4toml2v314path_componentESt6vectorIS3_SaIS3_EEEC2ERKS5_(ptr noundef nonnull align 8 dereferenceable(8) %2, ptr noundef nonnull align 8 dereferenceable(8) %6) #36
  %7 = getelementptr inbounds nuw %"class.__gnu_cxx::__normal_iterator", ptr %2, i32 0, i32 0
  %8 = load ptr, ptr %7, align 8
  ret ptr %8
}

; Function Attrs: mustprogress nounwind uwtable
define linkonce_odr void @_ZNSt13move_iteratorIN9__gnu_cxx17__normal_iteratorIPN4toml2v314path_componentESt6vectorIS4_SaIS4_EEEEEC2ES9_(ptr noundef nonnull align 8 dereferenceable(8) %0, ptr %1) unnamed_addr #2 comdat align 2 {
  %3 = alloca %"class.__gnu_cxx::__normal_iterator.32", align 8
  %4 = alloca ptr, align 8
  %5 = getelementptr inbounds nuw %"class.__gnu_cxx::__normal_iterator.32", ptr %3, i32 0, i32 0
  store ptr %1, ptr %5, align 8
  store ptr %0, ptr %4, align 8, !tbaa !492
  %6 = load ptr, ptr %4, align 8
  %7 = getelementptr inbounds nuw %"class.std::move_iterator", ptr %6, i32 0, i32 0
  call void @llvm.memcpy.p0.p0.i64(ptr align 8 %7, ptr align 8 %3, i64 8, i1 false), !tbaa.struct !191
  ret void
}

; Function Attrs: mustprogress nounwind uwtable
define linkonce_odr noundef nonnull align 8 dereferenceable(8) ptr @_ZNK9__gnu_cxx17__normal_iteratorIPN4toml2v314path_componentESt6vectorIS3_SaIS3_EEE4baseEv(ptr noundef nonnull align 8 dereferenceable(8) %0) #2 comdat align 2 {
  %2 = alloca ptr, align 8
  store ptr %0, ptr %2, align 8, !tbaa !192
  %3 = load ptr, ptr %2, align 8
  %4 = getelementptr inbounds nuw %"class.__gnu_cxx::__normal_iterator.32", ptr %3, i32 0, i32 0
  ret ptr %4
}

; Function Attrs: mustprogress nounwind uwtable
define linkonce_odr void @_ZN9__gnu_cxx17__normal_iteratorIPN4toml2v314path_componentESt6vectorIS3_SaIS3_EEEC2ERKS4_(ptr noundef nonnull align 8 dereferenceable(8) %0, ptr noundef nonnull align 8 dereferenceable(8) %1) unnamed_addr #2 comdat align 2 {
  %3 = alloca ptr, align 8
  %4 = alloca ptr, align 8
  store ptr %0, ptr %3, align 8, !tbaa !192
  store ptr %1, ptr %4, align 8, !tbaa !876
  %5 = load ptr, ptr %3, align 8
  %6 = getelementptr inbounds nuw %"class.__gnu_cxx::__normal_iterator.32", ptr %5, i32 0, i32 0
  %7 = load ptr, ptr %4, align 8, !tbaa !876
  %8 = load ptr, ptr %7, align 8, !tbaa !153
  store ptr %8, ptr %6, align 8, !tbaa !200
  ret void
}

; Function Attrs: mustprogress uwtable
define linkonce_odr ptr @_ZNSt6vectorIN4toml2v314path_componentESaIS2_EE6insertISt13move_iteratorIN9__gnu_cxx17__normal_iteratorIPS2_S4_EEEvEESA_NS8_IPKS2_S4_EET_SF_(ptr noundef nonnull align 8 dereferenceable(24) %0, ptr %1, ptr %2, ptr %3) #0 comdat align 2 {
  %5 = alloca %"class.__gnu_cxx::__normal_iterator.32", align 8
  %6 = alloca %"class.__gnu_cxx::__normal_iterator", align 8
  %7 = alloca %"class.std::move_iterator", align 8
  %8 = alloca %"class.std::move_iterator", align 8
  %9 = alloca ptr, align 8
  %10 = alloca i64, align 8
  %11 = alloca %"class.__gnu_cxx::__normal_iterator", align 8
  %12 = alloca %"class.__gnu_cxx::__normal_iterator.32", align 8
  %13 = alloca %"class.__gnu_cxx::__normal_iterator.32", align 8
  %14 = alloca %"class.std::move_iterator", align 8
  %15 = alloca %"class.std::move_iterator", align 8
  %16 = alloca %"class.__gnu_cxx::__normal_iterator.32", align 8
  %17 = getelementptr inbounds nuw %"class.__gnu_cxx::__normal_iterator", ptr %6, i32 0, i32 0
  store ptr %1, ptr %17, align 8
  %18 = getelementptr inbounds nuw %"class.std::move_iterator", ptr %7, i32 0, i32 0
  %19 = getelementptr inbounds nuw %"class.__gnu_cxx::__normal_iterator.32", ptr %18, i32 0, i32 0
  store ptr %2, ptr %19, align 8
  %20 = getelementptr inbounds nuw %"class.std::move_iterator", ptr %8, i32 0, i32 0
  %21 = getelementptr inbounds nuw %"class.__gnu_cxx::__normal_iterator.32", ptr %20, i32 0, i32 0
  store ptr %3, ptr %21, align 8
  store ptr %0, ptr %9, align 8, !tbaa !182
  %22 = load ptr, ptr %9, align 8
  call void @llvm.lifetime.start.p0(i64 8, ptr %10) #36
  call void @llvm.lifetime.start.p0(i64 8, ptr %11) #36
  %23 = call ptr @_ZNKSt6vectorIN4toml2v314path_componentESaIS2_EE6cbeginEv(ptr noundef nonnull align 8 dereferenceable(24) %22) #36
  %24 = getelementptr inbounds nuw %"class.__gnu_cxx::__normal_iterator", ptr %11, i32 0, i32 0
  store ptr %23, ptr %24, align 8
  %25 = call noundef i64 @_ZN9__gnu_cxxmiIPKN4toml2v314path_componentESt6vectorIS3_SaIS3_EEEENS_17__normal_iteratorIT_T0_E15difference_typeERKSC_SF_(ptr noundef nonnull align 8 dereferenceable(8) %6, ptr noundef nonnull align 8 dereferenceable(8) %11) #36
  call void @llvm.lifetime.end.p0(i64 8, ptr %11) #36
  store i64 %25, ptr %10, align 8, !tbaa !10
  call void @llvm.lifetime.start.p0(i64 8, ptr %13) #36
  %26 = call ptr @_ZNSt6vectorIN4toml2v314path_componentESaIS2_EE5beginEv(ptr noundef nonnull align 8 dereferenceable(24) %22) #36
  %27 = getelementptr inbounds nuw %"class.__gnu_cxx::__normal_iterator.32", ptr %13, i32 0, i32 0
  store ptr %26, ptr %27, align 8
  %28 = load i64, ptr %10, align 8, !tbaa !10
  %29 = call ptr @_ZNK9__gnu_cxx17__normal_iteratorIPN4toml2v314path_componentESt6vectorIS3_SaIS3_EEEplEl(ptr noundef nonnull align 8 dereferenceable(8) %13, i64 noundef %28) #36
  %30 = getelementptr inbounds nuw %"class.__gnu_cxx::__normal_iterator.32", ptr %12, i32 0, i32 0
  store ptr %29, ptr %30, align 8
  call void @llvm.memcpy.p0.p0.i64(ptr align 8 %14, ptr align 8 %7, i64 8, i1 false), !tbaa.struct !191
  call void @llvm.memcpy.p0.p0.i64(ptr align 8 %15, ptr align 8 %8, i64 8, i1 false), !tbaa.struct !191
  %31 = getelementptr inbounds nuw %"class.__gnu_cxx::__normal_iterator.32", ptr %12, i32 0, i32 0
  %32 = load ptr, ptr %31, align 8
  %33 = getelementptr inbounds nuw %"class.std::move_iterator", ptr %14, i32 0, i32 0
  %34 = getelementptr inbounds nuw %"class.__gnu_cxx::__normal_iterator.32", ptr %33, i32 0, i32 0
  %35 = load ptr, ptr %34, align 8
  %36 = getelementptr inbounds nuw %"class.std::move_iterator", ptr %15, i32 0, i32 0
  %37 = getelementptr inbounds nuw %"class.__gnu_cxx::__normal_iterator.32", ptr %36, i32 0, i32 0
  %38 = load ptr, ptr %37, align 8
  call void @_ZNSt6vectorIN4toml2v314path_componentESaIS2_EE18_M_insert_dispatchISt13move_iteratorIN9__gnu_cxx17__normal_iteratorIPS2_S4_EEEEEvSA_T_SC_St12__false_type(ptr noundef nonnull align 8 dereferenceable(24) %22, ptr %32, ptr %35, ptr %38)
  call void @llvm.lifetime.end.p0(i64 8, ptr %13) #36
  call void @llvm.lifetime.start.p0(i64 8, ptr %16) #36
  %39 = call ptr @_ZNSt6vectorIN4toml2v314path_componentESaIS2_EE5beginEv(ptr noundef nonnull align 8 dereferenceable(24) %22) #36
  %40 = getelementptr inbounds nuw %"class.__gnu_cxx::__normal_iterator.32", ptr %16, i32 0, i32 0
  store ptr %39, ptr %40, align 8
  %41 = load i64, ptr %10, align 8, !tbaa !10
  %42 = call ptr @_ZNK9__gnu_cxx17__normal_iteratorIPN4toml2v314path_componentESt6vectorIS3_SaIS3_EEEplEl(ptr noundef nonnull align 8 dereferenceable(8) %16, i64 noundef %41) #36
  %43 = getelementptr inbounds nuw %"class.__gnu_cxx::__normal_iterator.32", ptr %5, i32 0, i32 0
  store ptr %42, ptr %43, align 8
  call void @llvm.lifetime.end.p0(i64 8, ptr %16) #36
  call void @llvm.lifetime.end.p0(i64 8, ptr %10) #36
  %44 = getelementptr inbounds nuw %"class.__gnu_cxx::__normal_iterator.32", ptr %5, i32 0, i32 0
  %45 = load ptr, ptr %44, align 8
  ret ptr %45
}

; Function Attrs: inlinehint mustprogress uwtable
define linkonce_odr ptr @_ZSt18make_move_iteratorIN9__gnu_cxx17__normal_iteratorIPN4toml2v314path_componentESt6vectorIS4_SaIS4_EEEEESt13move_iteratorIT_ESB_(ptr %0) #12 comdat {
  %2 = alloca %"class.std::move_iterator", align 8
  %3 = alloca %"class.__gnu_cxx::__normal_iterator.32", align 8
  %4 = alloca %"class.__gnu_cxx::__normal_iterator.32", align 8
  %5 = getelementptr inbounds nuw %"class.__gnu_cxx::__normal_iterator.32", ptr %3, i32 0, i32 0
  store ptr %0, ptr %5, align 8
  call void @llvm.memcpy.p0.p0.i64(ptr align 8 %4, ptr align 8 %3, i64 8, i1 false), !tbaa.struct !191
  %6 = getelementptr inbounds nuw %"class.__gnu_cxx::__normal_iterator.32", ptr %4, i32 0, i32 0
  %7 = load ptr, ptr %6, align 8
  call void @_ZNSt13move_iteratorIN9__gnu_cxx17__normal_iteratorIPN4toml2v314path_componentESt6vectorIS4_SaIS4_EEEEEC2ES9_(ptr noundef nonnull align 8 dereferenceable(8) %2, ptr %7)
  %8 = getelementptr inbounds nuw %"class.std::move_iterator", ptr %2, i32 0, i32 0
  %9 = getelementptr inbounds nuw %"class.__gnu_cxx::__normal_iterator.32", ptr %8, i32 0, i32 0
  %10 = load ptr, ptr %9, align 8
  ret ptr %10
}

; Function Attrs: mustprogress nounwind uwtable
define linkonce_odr ptr @_ZNSt6vectorIN4toml2v314path_componentESaIS2_EE5beginEv(ptr noundef nonnull align 8 dereferenceable(24) %0) #2 comdat align 2 {
  %2 = alloca %"class.__gnu_cxx::__normal_iterator.32", align 8
  %3 = alloca ptr, align 8
  store ptr %0, ptr %3, align 8, !tbaa !182
  %4 = load ptr, ptr %3, align 8
  %5 = getelementptr inbounds nuw %"struct.std::_Vector_base.25", ptr %4, i32 0, i32 0
  %6 = getelementptr inbounds nuw %"struct.std::_Vector_base<toml::v3::path_component, std::allocator<toml::v3::path_component>>::_Vector_impl_data", ptr %5, i32 0, i32 0
  call void @_ZN9__gnu_cxx17__normal_iteratorIPN4toml2v314path_componentESt6vectorIS3_SaIS3_EEEC2ERKS4_(ptr noundef nonnull align 8 dereferenceable(8) %2, ptr noundef nonnull align 8 dereferenceable(8) %6) #36
  %7 = getelementptr inbounds nuw %"class.__gnu_cxx::__normal_iterator.32", ptr %2, i32 0, i32 0
  %8 = load ptr, ptr %7, align 8
  ret ptr %8
}

; Function Attrs: mustprogress nounwind uwtable
define linkonce_odr void @_ZN9__gnu_cxx17__normal_iteratorIPKN4toml2v314path_componentESt6vectorIS3_SaIS3_EEEC2IPS3_vEERKNS0_IT_S8_EE(ptr noundef nonnull align 8 dereferenceable(8) %0, ptr noundef nonnull align 8 dereferenceable(8) %1) unnamed_addr #2 comdat align 2 {
  %3 = alloca ptr, align 8
  %4 = alloca ptr, align 8
  store ptr %0, ptr %3, align 8, !tbaa !184
  store ptr %1, ptr %4, align 8, !tbaa !192
  %5 = load ptr, ptr %3, align 8
  %6 = getelementptr inbounds nuw %"class.__gnu_cxx::__normal_iterator", ptr %5, i32 0, i32 0
  %7 = load ptr, ptr %4, align 8, !tbaa !192
  %8 = call noundef nonnull align 8 dereferenceable(8) ptr @_ZNK9__gnu_cxx17__normal_iteratorIPN4toml2v314path_componentESt6vectorIS3_SaIS3_EEE4baseEv(ptr noundef nonnull align 8 dereferenceable(8) %7) #36
  %9 = load ptr, ptr %8, align 8, !tbaa !153
  store ptr %9, ptr %6, align 8, !tbaa !186
  ret void
}

; Function Attrs: mustprogress nounwind uwtable
define linkonce_odr ptr @_ZNSt6vectorIN4toml2v314path_componentESaIS2_EE3endEv(ptr noundef nonnull align 8 dereferenceable(24) %0) #2 comdat align 2 {
  %2 = alloca %"class.__gnu_cxx::__normal_iterator.32", align 8
  %3 = alloca ptr, align 8
  store ptr %0, ptr %3, align 8, !tbaa !182
  %4 = load ptr, ptr %3, align 8
  %5 = getelementptr inbounds nuw %"struct.std::_Vector_base.25", ptr %4, i32 0, i32 0
  %6 = getelementptr inbounds nuw %"struct.std::_Vector_base<toml::v3::path_component, std::allocator<toml::v3::path_component>>::_Vector_impl_data", ptr %5, i32 0, i32 1
  call void @_ZN9__gnu_cxx17__normal_iteratorIPN4toml2v314path_componentESt6vectorIS3_SaIS3_EEEC2ERKS4_(ptr noundef nonnull align 8 dereferenceable(8) %2, ptr noundef nonnull align 8 dereferenceable(8) %6) #36
  %7 = getelementptr inbounds nuw %"class.__gnu_cxx::__normal_iterator.32", ptr %2, i32 0, i32 0
  %8 = load ptr, ptr %7, align 8
  ret ptr %8
}

; Function Attrs: mustprogress uwtable
define noundef nonnull align 8 dereferenceable(24) ptr @_ZN4toml2v34pathpLEOS1_(ptr noundef nonnull align 8 dereferenceable(24) %0, ptr noundef nonnull align 8 dereferenceable(24) %1) #0 align 2 {
  %3 = alloca ptr, align 8
  %4 = alloca ptr, align 8
  %5 = alloca %"class.__gnu_cxx::__normal_iterator", align 8
  %6 = alloca %"class.__gnu_cxx::__normal_iterator.32", align 8
  %7 = alloca %"class.std::move_iterator", align 8
  %8 = alloca %"class.__gnu_cxx::__normal_iterator.32", align 8
  %9 = alloca %"class.std::move_iterator", align 8
  %10 = alloca %"class.__gnu_cxx::__normal_iterator.32", align 8
  %11 = alloca %"class.__gnu_cxx::__normal_iterator.32", align 8
  store ptr %0, ptr %3, align 8, !tbaa !151
  store ptr %1, ptr %4, align 8, !tbaa !151
  %12 = load ptr, ptr %3, align 8
  %13 = getelementptr inbounds nuw %"class.toml::v3::path", ptr %12, i32 0, i32 0
  call void @llvm.lifetime.start.p0(i64 8, ptr %6) #36
  %14 = getelementptr inbounds nuw %"class.toml::v3::path", ptr %12, i32 0, i32 0
  %15 = call ptr @_ZNSt6vectorIN4toml2v314path_componentESaIS2_EE3endEv(ptr noundef nonnull align 8 dereferenceable(24) %14) #36
  %16 = getelementptr inbounds nuw %"class.__gnu_cxx::__normal_iterator.32", ptr %6, i32 0, i32 0
  store ptr %15, ptr %16, align 8
  call void @_ZN9__gnu_cxx17__normal_iteratorIPKN4toml2v314path_componentESt6vectorIS3_SaIS3_EEEC2IPS3_vEERKNS0_IT_S8_EE(ptr noundef nonnull align 8 dereferenceable(8) %5, ptr noundef nonnull align 8 dereferenceable(8) %6) #36
  %17 = load ptr, ptr %4, align 8, !tbaa !151
  %18 = getelementptr inbounds nuw %"class.toml::v3::path", ptr %17, i32 0, i32 0
  %19 = call ptr @_ZNSt6vectorIN4toml2v314path_componentESaIS2_EE5beginEv(ptr noundef nonnull align 8 dereferenceable(24) %18) #36
  %20 = getelementptr inbounds nuw %"class.__gnu_cxx::__normal_iterator.32", ptr %8, i32 0, i32 0
  store ptr %19, ptr %20, align 8
  %21 = getelementptr inbounds nuw %"class.__gnu_cxx::__normal_iterator.32", ptr %8, i32 0, i32 0
  %22 = load ptr, ptr %21, align 8
  %23 = call ptr @_ZSt18make_move_iteratorIN9__gnu_cxx17__normal_iteratorIPN4toml2v314path_componentESt6vectorIS4_SaIS4_EEEEESt13move_iteratorIT_ESB_(ptr %22)
  %24 = getelementptr inbounds nuw %"class.std::move_iterator", ptr %7, i32 0, i32 0
  %25 = getelementptr inbounds nuw %"class.__gnu_cxx::__normal_iterator.32", ptr %24, i32 0, i32 0
  store ptr %23, ptr %25, align 8
  %26 = load ptr, ptr %4, align 8, !tbaa !151
  %27 = getelementptr inbounds nuw %"class.toml::v3::path", ptr %26, i32 0, i32 0
  %28 = call ptr @_ZNSt6vectorIN4toml2v314path_componentESaIS2_EE3endEv(ptr noundef nonnull align 8 dereferenceable(24) %27) #36
  %29 = getelementptr inbounds nuw %"class.__gnu_cxx::__normal_iterator.32", ptr %10, i32 0, i32 0
  store ptr %28, ptr %29, align 8
  %30 = getelementptr inbounds nuw %"class.__gnu_cxx::__normal_iterator.32", ptr %10, i32 0, i32 0
  %31 = load ptr, ptr %30, align 8
  %32 = call ptr @_ZSt18make_move_iteratorIN9__gnu_cxx17__normal_iteratorIPN4toml2v314path_componentESt6vectorIS4_SaIS4_EEEEESt13move_iteratorIT_ESB_(ptr %31)
  %33 = getelementptr inbounds nuw %"class.std::move_iterator", ptr %9, i32 0, i32 0
  %34 = getelementptr inbounds nuw %"class.__gnu_cxx::__normal_iterator.32", ptr %33, i32 0, i32 0
  store ptr %32, ptr %34, align 8
  %35 = getelementptr inbounds nuw %"class.__gnu_cxx::__normal_iterator", ptr %5, i32 0, i32 0
  %36 = load ptr, ptr %35, align 8
  %37 = getelementptr inbounds nuw %"class.std::move_iterator", ptr %7, i32 0, i32 0
  %38 = getelementptr inbounds nuw %"class.__gnu_cxx::__normal_iterator.32", ptr %37, i32 0, i32 0
  %39 = load ptr, ptr %38, align 8
  %40 = getelementptr inbounds nuw %"class.std::move_iterator", ptr %9, i32 0, i32 0
  %41 = getelementptr inbounds nuw %"class.__gnu_cxx::__normal_iterator.32", ptr %40, i32 0, i32 0
  %42 = load ptr, ptr %41, align 8
  %43 = call ptr @_ZNSt6vectorIN4toml2v314path_componentESaIS2_EE6insertISt13move_iteratorIN9__gnu_cxx17__normal_iteratorIPS2_S4_EEEvEESA_NS8_IPKS2_S4_EET_SF_(ptr noundef nonnull align 8 dereferenceable(24) %13, ptr %36, ptr %39, ptr %42)
  %44 = getelementptr inbounds nuw %"class.__gnu_cxx::__normal_iterator.32", ptr %11, i32 0, i32 0
  store ptr %43, ptr %44, align 8
  call void @llvm.lifetime.end.p0(i64 8, ptr %6) #36
  ret ptr %12
}